; Function Attrs: mustprogress uwtable
define hidden void @_ZN4cvc58internal6theory2bv14NodeBitblasterC2ERNS0_3EnvEPNS1_11TheoryStateE(ptr noundef nonnull align 8 dereferenceable(6112) %this, ptr noundef nonnull align 8 dereferenceable(576) %env, ptr noundef %s) unnamed_addr #3 align 2 personality ptr @__gxx_personality_v0 {
entry:
  tail call void @_ZN4cvc58internal6theory2bv11TBitblasterINS0_12NodeTemplateILb1EEEEC2Ev(ptr noundef nonnull align 8 dereferenceable(5976) %this)
  %0 = getelementptr inbounds i8, ptr %this, i64 5976
  invoke void @_ZN4cvc58internal6EnvObjC2ERNS0_3EnvE(ptr noundef nonnull align 8 dereferenceable(16) %0, ptr noundef nonnull align 8 dereferenceable(576) %env)
          to label %invoke.cont unwind label %lpad

invoke.cont:                                      ; preds = %entry
  store ptr getelementptr inbounds ({ [13 x ptr], [4 x ptr] }, ptr @_ZTVN4cvc58internal6theory2bv14NodeBitblasterE, i64 0, i32 0, i64 2), ptr %this, align 8
  store ptr getelementptr inbounds ({ [13 x ptr], [4 x ptr] }, ptr @_ZTVN4cvc58internal6theory2bv14NodeBitblasterE, i64 0, i32 1, i64 2), ptr %0, align 8
  %d_variables = getelementptr inbounds i8, ptr %this, i64 5992
  %_M_single_bucket.i.i = getelementptr inbounds i8, ptr %this, i64 6040
  store ptr %_M_single_bucket.i.i, ptr %d_variables, align 8
  %_M_bucket_count.i.i = getelementptr inbounds i8, ptr %this, i64 6000
  store i64 1, ptr %_M_bucket_count.i.i, align 8
  %_M_before_begin.i.i = getelementptr inbounds i8, ptr %this, i64 6008
  %_M_rehash_policy.i.i = getelementptr inbounds i8, ptr %this, i64 6024
  tail call void @llvm.memset.p0.i64(ptr noundef nonnull align 8 dereferenceable(16) %_M_before_begin.i.i, i8 0, i64 16, i1 false)
  store float 1.000000e+00, ptr %_M_rehash_policy.i.i, align 8
  %_M_next_resize.i.i.i = getelementptr inbounds i8, ptr %this, i64 6032
  tail call void @llvm.memset.p0.i64(ptr noundef nonnull align 8 dereferenceable(16) %_M_next_resize.i.i.i, i8 0, i64 16, i1 false)
  %d_bbAtoms = getelementptr inbounds i8, ptr %this, i64 6048
  %_M_single_bucket.i.i1 = getelementptr inbounds i8, ptr %this, i64 6096
  store ptr %_M_single_bucket.i.i1, ptr %d_bbAtoms, align 8
  %_M_bucket_count.i.i2 = getelementptr inbounds i8, ptr %this, i64 6056
  store i64 1, ptr %_M_bucket_count.i.i2, align 8
  %_M_before_begin.i.i3 = getelementptr inbounds i8, ptr %this, i64 6064
  %_M_rehash_policy.i.i4 = getelementptr inbounds i8, ptr %this, i64 6080
  tail call void @llvm.memset.p0.i64(ptr noundef nonnull align 8 dereferenceable(16) %_M_before_begin.i.i3, i8 0, i64 16, i1 false)
  store float 1.000000e+00, ptr %_M_rehash_policy.i.i4, align 8
  %_M_next_resize.i.i.i5 = getelementptr inbounds i8, ptr %this, i64 6088
  tail call void @llvm.memset.p0.i64(ptr noundef nonnull align 8 dereferenceable(16) %_M_next_resize.i.i.i5, i8 0, i64 16, i1 false)
  %d_state = getelementptr inbounds i8, ptr %this, i64 6104
  store ptr %s, ptr %d_state, align 8
  ret void

lpad:                                             ; preds = %entry
  %1 = landingpad { ptr, i32 }
          cleanup
  tail call void @_ZN4cvc58internal6theory2bv11TBitblasterINS0_12NodeTemplateILb1EEEED2Ev(ptr noundef nonnull align 8 dereferenceable(5976) %this) #21
  resume { ptr, i32 } %1
}